; Function Attrs: nounwind sspstrong uwtable
define i64 @rsock_unixpath_str(ptr noundef %0, i32 noundef %1) local_unnamed_addr #0 {
  %3 = zext i32 %1 to i64
  %4 = tail call i64 @llvm.umin.i64(i64 %3, i64 2)
  br label %5

5:                                                ; preds = %7, %2
  %.0.idx.i = phi i64 [ %3, %2 ], [ %.0.add.i, %7 ]
  %6 = icmp sgt i64 %.0.idx.i, 2
  br i1 %6, label %7, label %unixsocket_len.exit

7:                                                ; preds = %5
  %.0.add.i = add nsw i64 %.0.idx.i, -1
  %.ptr.i = getelementptr inbounds i8, ptr %0, i64 %.0.add.i
  %8 = load i8, ptr %.ptr.i, align 1, !tbaa !49
  %9 = icmp eq i8 %8, 0
  br i1 %9, label %5, label %unixsocket_len.exit.thread, !llvm.loop !93

unixsocket_len.exit:                              ; preds = %5
  %10 = icmp ugt i32 %1, 1
  br i1 %10, label %unixsocket_len.exit.thread, label %13

unixsocket_len.exit.thread:                       ; preds = %7, %unixsocket_len.exit
  %.0.idx.lcssa.i7 = phi i64 [ %4, %unixsocket_len.exit ], [ %.0.idx.i, %7 ]
  %gepdiff.i = add nsw i64 %.0.idx.lcssa.i7, -2
  %11 = getelementptr inbounds nuw i8, ptr %0, i64 2
  %12 = tail call i64 @rb_str_new(ptr noundef nonnull %11, i64 noundef %gepdiff.i) #21
  br label %15

13:                                               ; preds = %unixsocket_len.exit
  %14 = tail call i64 @rb_str_new_static(ptr noundef nonnull @.str.9, i64 noundef 0) #21
  br label %15

15:                                               ; preds = %13, %unixsocket_len.exit.thread
  %.0 = phi i64 [ %12, %unixsocket_len.exit.thread ], [ %14, %13 ]
  ret i64 %.0
}